; Function Attrs: mustprogress nofree norecurse nosync nounwind willreturn memory(readwrite, inaccessiblemem: none) uwtable
define hidden void @_ZN9Assembler4rcllE8Registeri(ptr nocapture noundef nonnull readonly align 8 dereferenceable(40) %0, i32 %1, i32 noundef %2) local_unnamed_addr #8 align 2 {
  %4 = sext i32 %1 to i64
  %5 = getelementptr inbounds %"class.Register::RegisterImpl", ptr getelementptr inbounds (i8, ptr @all_RegisterImpls, i64 1), i64 %4
  %6 = ptrtoint ptr %5 to i64
  %7 = trunc i64 %6 to i32
  %8 = sub i32 %7, ptrtoint (ptr getelementptr inbounds (i8, ptr @all_RegisterImpls, i64 1) to i32)
  %9 = icmp sgt i32 %8, 15
  br i1 %9, label %10, label %24

10:                                               ; preds = %3
  %11 = and i32 %8, 16
  %12 = lshr i32 %8, 3
  %13 = and i32 %12, 1
  %.1.i.i.i = or disjoint i32 %13, %11
  %14 = getelementptr inbounds i8, ptr %0, i64 8
  %15 = load ptr, ptr %14, align 8
  %16 = getelementptr inbounds i8, ptr %15, i64 16
  %17 = load ptr, ptr %16, align 8
  %18 = getelementptr inbounds i8, ptr %17, i64 1
  store i8 -43, ptr %17, align 1
  store ptr %18, ptr %16, align 8
  %19 = load ptr, ptr %14, align 8
  %.0.i.i2.i.i.i = trunc nuw nsw i32 %.1.i.i.i to i8
  %20 = getelementptr inbounds i8, ptr %19, i64 16
  %21 = load ptr, ptr %20, align 8
  %22 = getelementptr inbounds i8, ptr %21, i64 1
  store i8 %.0.i.i2.i.i.i, ptr %21, align 1
  store ptr %22, ptr %20, align 8
  %23 = and i32 %8, 7
  br label %_ZN9Assembler17prefix_and_encodeEibb.exit

24:                                               ; preds = %3
  %25 = icmp sgt i32 %8, 7
  br i1 %25, label %26, label %_ZN9Assembler17prefix_and_encodeEibb.exit

26:                                               ; preds = %24
  %27 = getelementptr inbounds i8, ptr %0, i64 8
  %28 = load ptr, ptr %27, align 8
  %29 = getelementptr inbounds i8, ptr %28, i64 16
  %30 = load ptr, ptr %29, align 8
  %31 = getelementptr inbounds i8, ptr %30, i64 1
  store i8 65, ptr %30, align 1
  store ptr %31, ptr %29, align 8
  %32 = add nsw i32 %8, -8
  br label %_ZN9Assembler17prefix_and_encodeEibb.exit

_ZN9Assembler17prefix_and_encodeEibb.exit:        ; preds = %26, %24, %10
  %.0.i = phi i32 [ %23, %10 ], [ %32, %26 ], [ %8, %24 ]
  %33 = icmp eq i32 %2, 1
  %34 = getelementptr inbounds i8, ptr %0, i64 8
  %35 = load ptr, ptr %34, align 8
  %36 = trunc i32 %.0.i to i8
  %.0.i2.i = or i8 %36, -48
  br i1 %33, label %37, label %42

37:                                               ; preds = %_ZN9Assembler17prefix_and_encodeEibb.exit
  %38 = getelementptr inbounds i8, ptr %35, i64 16
  %39 = load ptr, ptr %38, align 8
  %40 = getelementptr inbounds i8, ptr %39, i64 1
  store i8 -47, ptr %39, align 1
  %41 = getelementptr inbounds i8, ptr %39, i64 2
  store i8 %.0.i2.i, ptr %40, align 1
  store ptr %41, ptr %38, align 8
  br label %48

42:                                               ; preds = %_ZN9Assembler17prefix_and_encodeEibb.exit
  %.0.i4.i = trunc i32 %2 to i8
  %43 = getelementptr inbounds i8, ptr %35, i64 16
  %44 = load ptr, ptr %43, align 8
  %45 = getelementptr inbounds i8, ptr %44, i64 1
  store i8 -63, ptr %44, align 1
  %46 = getelementptr inbounds i8, ptr %44, i64 2
  store i8 %.0.i2.i, ptr %45, align 1
  %47 = getelementptr inbounds i8, ptr %44, i64 3
  store i8 %.0.i4.i, ptr %46, align 1
  store ptr %47, ptr %43, align 8
  br label %48

48:                                               ; preds = %42, %37
  ret void
}